; Function Attrs: mustprogress nofree norecurse nosync nounwind willreturn memory(argmem: readwrite) uwtable
define void @png_set_write_user_transform_fn(ptr noalias noundef %0, ptr noundef %1) local_unnamed_addr #3 {
  %3 = icmp eq ptr %0, null
  br i1 %3, label %9, label %4

4:                                                ; preds = %2
  %5 = getelementptr inbounds i8, ptr %0, i64 308
  %6 = load i32, ptr %5, align 4
  %7 = or i32 %6, 1048576
  store i32 %7, ptr %5, align 4
  %8 = getelementptr inbounds i8, ptr %0, i64 280
  store ptr %1, ptr %8, align 8
  br label %9

9:                                                ; preds = %2, %4
  ret void
}